; Function Attrs: mustprogress uwtable
define void @_ZN3gmx25CompositeSimulatorElement15elementTeardownEv(ptr nocapture noundef nonnull readonly align 8 dereferenceable(64) %0) unnamed_addr #0 align 2 {
  %2 = getelementptr inbounds i8, ptr %0, i64 32
  %3 = load ptr, ptr %2, align 8
  %4 = getelementptr inbounds i8, ptr %0, i64 40
  %5 = load ptr, ptr %4, align 8
  %.not7 = icmp eq ptr %3, %5
  br i1 %.not7, label %._crit_edge, label %.lr.ph

.lr.ph:                                           ; preds = %1, %.lr.ph
  %.sroa.04.08 = phi ptr [ %10, %.lr.ph ], [ %3, %1 ]
  %6 = load ptr, ptr %.sroa.04.08, align 8
  %7 = load ptr, ptr %6, align 8
  %8 = getelementptr inbounds i8, ptr %7, i64 16
  %9 = load ptr, ptr %8, align 8
  tail call void %9(ptr noundef nonnull align 8 dereferenceable(8) %6)
  %10 = getelementptr inbounds i8, ptr %.sroa.04.08, i64 8
  %.not = icmp eq ptr %10, %5
  br i1 %.not, label %._crit_edge, label %.lr.ph

._crit_edge:                                      ; preds = %.lr.ph, %1
  ret void
}